target datalayout = "e-m:e-p270:32:32-p271:32:32-p272:64:64-i64:64-i128:128-f80:128-n8:16:32:64-S128"
target triple = "x86_64-unknown-linux-gnu"

%class.svector.13 = type { %class.vector.14 }
%class.vector.14 = type { ptr }
%class.svector.19 = type { %class.vector.20 }
%class.vector.20 = type { ptr }
%"class.smt::theory_bv" = type { %"class.smt::theory.base", %"struct.smt::theory_bv_stats", %class.bv_util, %class.arith_util, %class.bit_blaster, %class.trail_stack, %class.union_find, %class.vector.5, %class.ptr_vector.1, %class.svector, %class.vector.6, %class.ptr_vector.7, %class.ptr_vector, %class.map, %class.vector.9, [256 x i8], %class.svector.10, i32, %class.vector.12, [256 x i8], %class.svector, %class.svector, %class.svector.13, %class.svector.15, i8, [2 x %class.svector.17], ptr }
%"class.smt::theory.base" = type <{ ptr, i32, [4 x i8], ptr, ptr, %class.ptr_vector, %class.svector, i32, i8 }>
%"struct.smt::theory_bv_stats" = type { i32, i32, i32, i32, i32, i32 }
%class.bv_util = type { %class.bv_recognizers, ptr, ptr }
%class.bv_recognizers = type { i32 }
%class.arith_util = type { ptr, ptr }
%class.bit_blaster = type { %class.bit_blaster_tpl, %class.bv_util, %class.bool_rewriter }
%class.bit_blaster_tpl = type { %class.bit_blaster_cfg, i64 }
%class.bit_blaster_cfg = type { ptr, ptr, ptr }
%class.bool_rewriter = type { ptr, i8, i8, i8, i8, i8, i8, i32, i8, i32, i32, i8, %class.ptr_vector.1, %class.ptr_vector.1, %class.svector, %class.svector }
%class.trail_stack = type { %class.ptr_vector.3, %class.svector, %class.region }
%class.ptr_vector.3 = type { %class.vector.4 }
%class.vector.4 = type { ptr }
%class.region = type { ptr, ptr, ptr, ptr, ptr }
%class.union_find = type { ptr, ptr, %class.svector, %class.svector, %class.svector, %"class.union_find<smt::theory_bv>::mk_var_trail" }
%"class.union_find<smt::theory_bv>::mk_var_trail" = type { %class.trail, ptr }
%class.trail = type { ptr }
%class.vector.5 = type { ptr }
%class.ptr_vector.1 = type { %class.vector.2 }
%class.vector.2 = type { ptr }
%class.vector.6 = type { ptr }
%class.ptr_vector.7 = type { %class.vector.8 }
%class.vector.8 = type { ptr }
%class.ptr_vector = type { %class.vector }
%class.vector = type { ptr }
%class.map = type { %class.table2map }
%class.table2map = type { %class.core_hashtable }
%class.core_hashtable = type <{ %"struct.table2map<default_map_entry<std::pair<rational, unsigned int>, int>, pair_hash<obj_hash<rational>, unsigned_hash>, default_eq<std::pair<rational, unsigned int>>>::entry_hash_proc", [7 x i8], ptr, i32, i32, i32, [4 x i8] }>
%"struct.table2map<default_map_entry<std::pair<rational, unsigned int>, int>, pair_hash<obj_hash<rational>, unsigned_hash>, default_eq<std::pair<rational, unsigned int>>>::entry_hash_proc" = type { %struct.pair_hash }
%struct.pair_hash = type { %struct.unsigned_hash }
%struct.unsigned_hash = type { i8 }
%class.vector.9 = type { ptr }
%class.svector.10 = type { %class.vector.11 }
%class.vector.11 = type { ptr }
%class.vector.12 = type { ptr }
%class.svector = type { %class.vector.0 }
%class.vector.0 = type { ptr }
%class.svector.15 = type { %class.vector.16 }
%class.vector.16 = type { ptr }
%class.svector.17 = type { %class.vector.18 }
%class.vector.18 = type { ptr }
%"struct.smt::theory_bv::zero_one_bit" = type { i32, i32 }

; Function Attrs: mustprogress nounwind uwtable
define linkonce_odr hidden noundef nonnull align 4 dereferenceable(4) ptr @_ZNK6vectorIjLb0EjEixEj(ptr noundef nonnull align 8 dereferenceable(8) %this, i32 noundef %idx) #4 comdat align 2 {
entry:
  %this.addr = alloca ptr, align 8
  %idx.addr = alloca i32, align 4
  store ptr %this, ptr %this.addr, align 8
  store i32 %idx, ptr %idx.addr, align 4
  %this1 = load ptr, ptr %this.addr, align 8
  %m_data = getelementptr inbounds %class.vector.0, ptr %this1, i32 0, i32 0
  %0 = load ptr, ptr %m_data, align 8
  %1 = load i32, ptr %idx.addr, align 4
  %idxprom = zext i32 %1 to i64
  %arrayidx = getelementptr inbounds i32, ptr %0, i64 %idxprom
  ret ptr %arrayidx
}

; Function Attrs: mustprogress nounwind uwtable
define linkonce_odr hidden noundef i32 @_ZNK10union_findIN3smt9theory_bvES1_E4findEj(ptr noundef nonnull align 8 dereferenceable(56) %this, i32 noundef %v) #4 comdat align 2 {
entry:
  %this.addr = alloca ptr, align 8
  %v.addr = alloca i32, align 4
  %new_v = alloca i32, align 4
  store ptr %this, ptr %this.addr, align 8
  store i32 %v, ptr %v.addr, align 4
  %this1 = load ptr, ptr %this.addr, align 8
  br label %while.body

while.body:                                       ; preds = %if.end, %entry
  %m_find = getelementptr inbounds %class.union_find, ptr %this1, i32 0, i32 2
  %0 = load i32, ptr %v.addr, align 4
  %call = call noundef nonnull align 4 dereferenceable(4) ptr @_ZNK6vectorIjLb0EjEixEj(ptr noundef nonnull align 8 dereferenceable(8) %m_find, i32 noundef %0)
  %1 = load i32, ptr %call, align 4
  store i32 %1, ptr %new_v, align 4
  %2 = load i32, ptr %new_v, align 4
  %3 = load i32, ptr %v.addr, align 4
  %cmp = icmp eq i32 %2, %3
  br i1 %cmp, label %if.then, label %if.end

if.then:                                          ; preds = %while.body
  %4 = load i32, ptr %v.addr, align 4
  ret i32 %4

if.end:                                           ; preds = %while.body
  %5 = load i32, ptr %new_v, align 4
  store i32 %5, ptr %v.addr, align 4
  br label %while.body, !llvm.loop !60
}

; Function Attrs: mustprogress nounwind uwtable
define linkonce_odr hidden void @_ZN6vectorIN3smt9theory_bv12zero_one_bitELb0EjE6shrinkEj(ptr noundef nonnull align 8 dereferenceable(8) %this, i32 noundef %s) #4 comdat align 2 {
entry:
  %this.addr = alloca ptr, align 8
  %s.addr = alloca i32, align 4
  store ptr %this, ptr %this.addr, align 8
  store i32 %s, ptr %s.addr, align 4
  %this1 = load ptr, ptr %this.addr, align 8
  %m_data = getelementptr inbounds %class.vector.20, ptr %this1, i32 0, i32 0
  %0 = load ptr, ptr %m_data, align 8
  %tobool = icmp ne ptr %0, null
  br i1 %tobool, label %if.then, label %if.else

if.then:                                          ; preds = %entry
  %1 = load i32, ptr %s.addr, align 4
  %m_data2 = getelementptr inbounds %class.vector.20, ptr %this1, i32 0, i32 0
  %2 = load ptr, ptr %m_data2, align 8
  %arrayidx = getelementptr inbounds i32, ptr %2, i64 -1
  store i32 %1, ptr %arrayidx, align 4
  br label %if.end

if.else:                                          ; preds = %entry
  br label %if.end

if.end:                                           ; preds = %if.else, %if.then
  ret void
}

; Function Attrs: mustprogress uwtable
define linkonce_odr hidden noundef i32 @_ZNK3smt9theory_bv4findEi(ptr noundef nonnull align 8 dereferenceable(1048) %this, i32 noundef %v) #5 comdat align 2 {
entry:
  %this.addr = alloca ptr, align 8
  %v.addr = alloca i32, align 4
  store ptr %this, ptr %this.addr, align 8
  store i32 %v, ptr %v.addr, align 4
  %this1 = load ptr, ptr %this.addr, align 8
  %m_find = getelementptr inbounds %"class.smt::theory_bv", ptr %this1, i32 0, i32 6
  %0 = load i32, ptr %v.addr, align 4
  %call = call noundef i32 @_ZNK10union_findIN3smt9theory_bvES1_E4findEj(ptr noundef nonnull align 8 dereferenceable(56) %m_find, i32 noundef %0)
  ret i32 %call
}

; Function Attrs: mustprogress nounwind uwtable
define linkonce_odr hidden noundef nonnull align 4 dereferenceable(8) ptr @_ZN6vectorIN3smt9theory_bv12zero_one_bitELb0EjEixEj(ptr noundef nonnull align 8 dereferenceable(8) %this, i32 noundef %idx) #4 comdat align 2 {
entry:
  %this.addr = alloca ptr, align 8
  %idx.addr = alloca i32, align 4
  store ptr %this, ptr %this.addr, align 8
  store i32 %idx, ptr %idx.addr, align 4
  %this1 = load ptr, ptr %this.addr, align 8
  %m_data = getelementptr inbounds %class.vector.20, ptr %this1, i32 0, i32 0
  %0 = load ptr, ptr %m_data, align 8
  %1 = load i32, ptr %idx.addr, align 4
  %idxprom = zext i32 %1 to i64
  %arrayidx = getelementptr inbounds %"struct.smt::theory_bv::zero_one_bit", ptr %0, i64 %idxprom
  ret ptr %arrayidx
}

; Function Attrs: mustprogress nounwind uwtable
define linkonce_odr hidden noundef i32 @_ZNK6vectorIN3smt9theory_bv12zero_one_bitELb0EjE4sizeEv(ptr noundef nonnull align 8 dereferenceable(8) %this) #4 comdat align 2 {
entry:
  %retval = alloca i32, align 4
  %this.addr = alloca ptr, align 8
  store ptr %this, ptr %this.addr, align 8
  %this1 = load ptr, ptr %this.addr, align 8
  %m_data = getelementptr inbounds %class.vector.20, ptr %this1, i32 0, i32 0
  %0 = load ptr, ptr %m_data, align 8
  %cmp = icmp eq ptr %0, null
  br i1 %cmp, label %if.then, label %if.end

if.then:                                          ; preds = %entry
  store i32 0, ptr %retval, align 4
  br label %return

if.end:                                           ; preds = %entry
  %m_data2 = getelementptr inbounds %class.vector.20, ptr %this1, i32 0, i32 0
  %1 = load ptr, ptr %m_data2, align 8
  %arrayidx = getelementptr inbounds i32, ptr %1, i64 -1
  %2 = load i32, ptr %arrayidx, align 4
  store i32 %2, ptr %retval, align 4
  br label %return

return:                                           ; preds = %if.end, %if.then
  %3 = load i32, ptr %retval, align 4
  ret i32 %3
}

; Function Attrs: mustprogress nounwind uwtable
define linkonce_odr hidden noundef zeroext i1 @_ZNK6vectorIN3smt9theory_bv12zero_one_bitELb0EjE5emptyEv(ptr noundef nonnull align 8 dereferenceable(8) %this) #4 comdat align 2 {
entry:
  %this.addr = alloca ptr, align 8
  store ptr %this, ptr %this.addr, align 8
  %this1 = load ptr, ptr %this.addr, align 8
  %m_data = getelementptr inbounds %class.vector.20, ptr %this1, i32 0, i32 0
  %0 = load ptr, ptr %m_data, align 8
  %cmp = icmp eq ptr %0, null
  br i1 %cmp, label %lor.end, label %lor.rhs

lor.rhs:                                          ; preds = %entry
  %m_data2 = getelementptr inbounds %class.vector.20, ptr %this1, i32 0, i32 0
  %1 = load ptr, ptr %m_data2, align 8
  %arrayidx = getelementptr inbounds i32, ptr %1, i64 -1
  %2 = load i32, ptr %arrayidx, align 4
  %cmp3 = icmp eq i32 %2, 0
  br label %lor.end

lor.end:                                          ; preds = %lor.rhs, %entry
  %3 = phi i1 [ true, %entry ], [ %cmp3, %lor.rhs ]
  ret i1 %3
}

; Function Attrs: mustprogress nounwind uwtable
define linkonce_odr hidden noundef nonnull align 8 dereferenceable(8) ptr @_ZN6vectorI7svectorIN3smt9theory_bv12zero_one_bitEjELb1EjEixEj(ptr noundef nonnull align 8 dereferenceable(8) %this, i32 noundef %idx) #4 comdat align 2 {
entry:
  %this.addr = alloca ptr, align 8
  %idx.addr = alloca i32, align 4
  store ptr %this, ptr %this.addr, align 8
  store i32 %idx, ptr %idx.addr, align 4
  %this1 = load ptr, ptr %this.addr, align 8
  %m_data = getelementptr inbounds %class.vector.6, ptr %this1, i32 0, i32 0
  %0 = load ptr, ptr %m_data, align 8
  %1 = load i32, ptr %idx.addr, align 4
  %idxprom = zext i32 %1 to i64
  %arrayidx = getelementptr inbounds %class.svector.19, ptr %0, i64 %idxprom
  ret ptr %arrayidx
}

; Function Attrs: mustprogress uwtable
define hidden void @_ZN3smt9theory_bv10unmerge_ehEii(ptr noundef nonnull align 8 dereferenceable(1048) %this, i32 noundef %v1, i32 noundef %v2) #5 align 2 {
entry:
  %this.addr = alloca ptr, align 8
  %v1.addr = alloca i32, align 4
  %v2.addr = alloca i32, align 4
  %bits = alloca ptr, align 8
  %j = alloca i32, align 4
  %bit = alloca ptr, align 8
  store ptr %this, ptr %this.addr, align 8
  store i32 %v1, ptr %v1.addr, align 4
  store i32 %v2, ptr %v2.addr, align 4
  %this1 = load ptr, ptr %this.addr, align 8
  %m_zero_one_bits = getelementptr inbounds %"class.smt::theory_bv", ptr %this1, i32 0, i32 10
  %0 = load i32, ptr %v1.addr, align 4
  %call = call noundef nonnull align 8 dereferenceable(8) ptr @_ZN6vectorI7svectorIN3smt9theory_bv12zero_one_bitEjELb1EjEixEj(ptr noundef nonnull align 8 dereferenceable(8) %m_zero_one_bits, i32 noundef %0)
  store ptr %call, ptr %bits, align 8
  %1 = load ptr, ptr %bits, align 8
  %call2 = call noundef zeroext i1 @_ZNK6vectorIN3smt9theory_bv12zero_one_bitELb0EjE5emptyEv(ptr noundef nonnull align 8 dereferenceable(8) %1)
  br i1 %call2, label %if.then, label %if.end

if.then:                                          ; preds = %entry
  br label %return

if.end:                                           ; preds = %entry
  %2 = load ptr, ptr %bits, align 8
  %call3 = call noundef i32 @_ZNK6vectorIN3smt9theory_bv12zero_one_bitELb0EjE4sizeEv(ptr noundef nonnull align 8 dereferenceable(8) %2)
  store i32 %call3, ptr %j, align 4
  br label %while.cond

while.cond:                                       ; preds = %if.end8, %if.end
  %3 = load i32, ptr %j, align 4
  %cmp = icmp ugt i32 %3, 0
  br i1 %cmp, label %while.body, label %while.end

while.body:                                       ; preds = %while.cond
  %4 = load i32, ptr %j, align 4
  %dec = add i32 %4, -1
  store i32 %dec, ptr %j, align 4
  %5 = load ptr, ptr %bits, align 8
  %6 = load i32, ptr %j, align 4
  %call4 = call noundef nonnull align 4 dereferenceable(8) ptr @_ZN6vectorIN3smt9theory_bv12zero_one_bitELb0EjEixEj(ptr noundef nonnull align 8 dereferenceable(8) %5, i32 noundef %6)
  store ptr %call4, ptr %bit, align 8
  %7 = load ptr, ptr %bit, align 8
  %m_owner = getelementptr inbounds %"struct.smt::theory_bv::zero_one_bit", ptr %7, i32 0, i32 0
  %8 = load i32, ptr %m_owner, align 4
  %call5 = call noundef i32 @_ZNK3smt9theory_bv4findEi(ptr noundef nonnull align 8 dereferenceable(1048) %this1, i32 noundef %8)
  %9 = load i32, ptr %v1.addr, align 4
  %cmp6 = icmp eq i32 %call5, %9
  br i1 %cmp6, label %if.then7, label %if.end8

if.then7:                                         ; preds = %while.body
  %10 = load ptr, ptr %bits, align 8
  %11 = load i32, ptr %j, align 4
  %add = add i32 %11, 1
  call void @_ZN6vectorIN3smt9theory_bv12zero_one_bitELb0EjE6shrinkEj(ptr noundef nonnull align 8 dereferenceable(8) %10, i32 noundef %add)
  br label %return

if.end8:                                          ; preds = %while.body
  br label %while.cond, !llvm.loop !42

while.end:                                        ; preds = %while.cond
  %12 = load ptr, ptr %bits, align 8
  call void @_ZN6vectorIN3smt9theory_bv12zero_one_bitELb0EjE6shrinkEj(ptr noundef nonnull align 8 dereferenceable(8) %12, i32 noundef 0)
  br label %return

return:                                           ; preds = %while.end, %if.then7, %if.then
  ret void
}