; Function Attrs: mustprogress nofree norecurse nosync nounwind memory(readwrite, inaccessiblemem: none) uwtable
define hidden void @_ZN3smt9theory_bv10unmerge_ehEii(ptr nocapture noundef nonnull readonly align 8 dereferenceable(1048) %this, i32 noundef %v1, i32 noundef %v2) local_unnamed_addr #14 align 2 {
entry:
  %m_zero_one_bits = getelementptr inbounds i8, ptr %this, i64 384
  %0 = load ptr, ptr %m_zero_one_bits, align 8
  %idxprom.i = zext i32 %v1 to i64
  %arrayidx.i = getelementptr inbounds %class.svector.19, ptr %0, i64 %idxprom.i
  %1 = load ptr, ptr %arrayidx.i, align 8
  %cmp.i = icmp eq ptr %1, null
  br i1 %cmp.i, label %return, label %_ZNK6vectorIN3smt9theory_bv12zero_one_bitELb0EjE5emptyEv.exit

_ZNK6vectorIN3smt9theory_bv12zero_one_bitELb0EjE5emptyEv.exit: ; preds = %entry
  %arrayidx.i9 = getelementptr inbounds i8, ptr %1, i64 -4
  %2 = load i32, ptr %arrayidx.i9, align 4
  %cmp3.i = icmp eq i32 %2, 0
  br i1 %cmp3.i, label %return, label %_ZNK6vectorIN3smt9theory_bv12zero_one_bitELb0EjE4sizeEv.exit

_ZNK6vectorIN3smt9theory_bv12zero_one_bitELb0EjE4sizeEv.exit: ; preds = %_ZNK6vectorIN3smt9theory_bv12zero_one_bitELb0EjE5emptyEv.exit
  %m_find.i.i = getelementptr inbounds i8, ptr %this, i64 320
  %3 = load ptr, ptr %m_find.i.i, align 8
  %4 = zext i32 %2 to i64
  br label %while.cond

while.cond:                                       ; preds = %_ZNK3smt9theory_bv4findEi.exit, %_ZNK6vectorIN3smt9theory_bv12zero_one_bitELb0EjE4sizeEv.exit
  %indvars.iv = phi i64 [ %5, %_ZNK3smt9theory_bv4findEi.exit ], [ %4, %_ZNK6vectorIN3smt9theory_bv12zero_one_bitELb0EjE4sizeEv.exit ]
  %cmp.not = icmp eq i64 %indvars.iv, 0
  br i1 %cmp.not, label %return.sink.split, label %while.body

while.body:                                       ; preds = %while.cond
  %5 = add nsw i64 %indvars.iv, -1
  %arrayidx.i13 = getelementptr inbounds %"struct.smt::theory_bv::zero_one_bit", ptr %1, i64 %5
  %6 = load i32, ptr %arrayidx.i13, align 4
  br label %while.body.i.i

while.body.i.i:                                   ; preds = %while.body.i.i, %while.body
  %v.addr.0.i.i = phi i32 [ %6, %while.body ], [ %7, %while.body.i.i ]
  %idxprom.i.i.i = zext i32 %v.addr.0.i.i to i64
  %arrayidx.i.i.i = getelementptr inbounds i32, ptr %3, i64 %idxprom.i.i.i
  %7 = load i32, ptr %arrayidx.i.i.i, align 4
  %cmp.i.i = icmp eq i32 %7, %v.addr.0.i.i
  br i1 %cmp.i.i, label %_ZNK3smt9theory_bv4findEi.exit, label %while.body.i.i, !llvm.loop !44

_ZNK3smt9theory_bv4findEi.exit:                   ; preds = %while.body.i.i
  %cmp6 = icmp eq i32 %v.addr.0.i.i, %v1
  br i1 %cmp6, label %if.then.i, label %while.cond, !llvm.loop !70

if.then.i:                                        ; preds = %_ZNK3smt9theory_bv4findEi.exit
  %8 = trunc i64 %indvars.iv to i32
  br label %return.sink.split

return.sink.split:                                ; preds = %while.cond, %if.then.i
  %.sink = phi i32 [ %8, %if.then.i ], [ 0, %while.cond ]
  store i32 %.sink, ptr %arrayidx.i9, align 4
  br label %return

return:                                           ; preds = %return.sink.split, %entry, %_ZNK6vectorIN3smt9theory_bv12zero_one_bitELb0EjE5emptyEv.exit
  ret void
}